Certificate:
    Data:
        Version: 3 (0x2)
        Serial Number:
            ad:29:e9:36:bf:7b:17:67:92:79:db:dd:bc:92:73:75
        Signature Algorithm: sha256WithRSAEncryption
        Issuer: CN=Easy-RSA CA
        Validity
            Not Before: Mar  3 23:33:17 2023 GMT
            Not After : Jun  5 23:33:17 2025 GMT
        Subject: CN=client1
        Subject Public Key Info:
            Public Key Algorithm: rsaEncryption
                RSA Public-Key: (2048 bit)
                Modulus:
                    00:c3:9f:18:dd:e0:62:8d:20:12:f7:0c:c8:21:77:
                    63:c4:bb:29:f4:fd:db:e5:8e:7f:c5:77:e6:87:29:
                    72:f1:c2:d6:eb:1b:67:a9:b8:54:b0:f4:93:77:f4:
                    87:03:1c:51:cc:dd:08:ee:bc:4b:34:74:1a:03:97:
                    fd:50:91:28:bf:b5:57:61:e6:43:ac:d7:79:33:6a:
                    02:68:ec:21:1b:b4:3c:76:4d:91:37:40:d2:29:7b:
                    b3:50:c9:a9:f7:bd:95:17:61:5b:2a:69:bc:31:d3:
                    e3:8c:31:27:a0:35:14:82:81:6e:ae:08:53:67:65:
                    57:4c:d1:5f:91:a0:ff:97:ae:2d:59:98:86:d8:b3:
                    f3:41:92:e2:7a:d1:10:86:cd:f0:3e:f3:a7:dc:35:
                    46:16:e9:54:45:60:e3:c1:90:57:30:ba:8b:a5:1c:
                    a0:c2:90:24:0d:ac:78:d2:41:61:69:7c:e5:bc:0c:
                    48:c3:53:78:c1:4b:1f:d7:01:95:9f:78:87:3f:15:
                    3d:57:fe:a5:12:f4:26:18:31:0a:e9:84:1d:70:6f:
                    a8:cc:b7:59:35:ff:a3:d9:2e:41:21:a6:a9:43:12:
                    f4:6b:38:ed:d2:be:2a:26:c1:7e:bc:c6:4c:d1:7d:
                    6e:02:7e:0e:c4:2f:bc:cb:98:84:57:61:5f:da:43:
                    5d:93
                Exponent: 65537 (0x10001)
        X509v3 extensions:
            X509v3 Basic Constraints: 
                CA:FALSE
            X509v3 Subject Key Identifier: 
                14:F7:12:D6:99:AA:21:2A:F7:BF:6F:76:63:50:27:5C:5D:04:D2:A3
            X509v3 Authority Key Identifier: 
                keyid:69:C7:8A:10:40:38:E7:44:10:A9:A8:EA:E7:0F:76:C7:7A:89:95:34
                DirName:/CN=Easy-RSA CA
                serial:51:65:32:7E:38:51:F9:C8:BD:54:F3:D8:92:F3:30:A5:3F:C9:97:14

            X509v3 Extended Key Usage: 
                TLS Web Client Authentication
            X509v3 Key Usage: 
                Digital Signature
    Signature Algorithm: sha256WithRSAEncryption
         83:1e:5d:8c:a3:44:1c:5a:22:9e:9b:80:c0:07:34:4b:1b:3c:
         4b:45:1a:ab:96:fa:32:cf:f2:48:28:2a:47:b0:af:f2:7d:a4:
         db:70:17:3f:f1:6f:97:fb:b0:35:80:7a:37:92:43:6c:d9:ae:
         ba:8b:53:8e:54:5c:b0:20:83:72:ae:e1:71:32:34:11:74:39:
         50:d6:58:eb:1b:1d:dc:c2:b0:eb:87:be:b3:78:ff:50:d1:ef:
         51:a4:07:a9:b8:6c:1d:24:e9:cc:92:4b:c0:0d:4e:4f:6a:db:
         96:b0:ce:57:70:75:93:2c:0c:2b:17:6f:89:ff:f9:5b:52:d0:
         44:1d:b7:98:8b:4c:e4:10:d0:d2:88:bf:f1:02:dc:7f:a7:7f:
         da:18:e2:59:ea:a0:c7:91:20:99:22:9b:5a:51:86:87:7e:de:
         63:47:d3:a6:16:23:ad:a7:37:65:66:05:7e:67:ff:5d:f6:0a:
         18:e1:88:72:1e:1f:e2:70:0a:eb:0b:2a:36:ec:c7:16:7d:e8:
         29:47:77:5b:0a:e0:9d:cc:0d:38:39:8e:f4:dd:76:11:ee:2d:
         c5:e9:af:0f:cf:39:05:7d:b1:4a:93:f9:fe:c5:83:fe:94:de:
         fe:f9:e1:bc:c7:86:f7:ea:18:05:35:4a:2f:99:67:26:c7:64:
         75:9c:cc:17
-----BEGIN CERTIFICATE-----
MIIDVjCCAj6gAwIBAgIRAK0p6Ta/exdnknnb3bySc3UwDQYJKoZIhvcNAQELBQAw
FjEUMBIGA1UEAwwLRWFzeS1SU0EgQ0EwHhcNMjMwMzAzMjMzMzE3WhcNMjUwNjA1
MjMzMzE3WjASMRAwDgYDVQQDDAdjbGllbnQxMIIBIjANBgkqhkiG9w0BAQEFAAOC
AQ8AMIIBCgKCAQEAw58Y3eBijSAS9wzIIXdjxLsp9P3b5Y5/xXfmhyly8cLW6xtn
qbhUsPSTd/SHAxxRzN0I7rxLNHQaA5f9UJEov7VXYeZDrNd5M2oCaOwhG7Q8dk2R
N0DSKXuzUMmp972VF2FbKmm8MdPjjDEnoDUUgoFurghTZ2VXTNFfkaD/l64tWZiG
2LPzQZLietEQhs3wPvOn3DVGFulURWDjwZBXMLqLpRygwpAkDax40kFhaXzlvAxI
w1N4wUsf1wGVn3iHPxU9V/6lEvQmGDEK6YQdcG+ozLdZNf+j2S5BIaapQxL0azjt
0r4qJsF+vMZM0X1uAn4OxC+8y5iEV2Ff2kNdkwIDAQABo4GiMIGfMAkGA1UdEwQC
MAAwHQYDVR0OBBYEFBT3EtaZqiEq979vdmNQJ1xdBNKjMFEGA1UdIwRKMEiAFGnH
ihBAOOdEEKmo6ucPdsd6iZU0oRqkGDAWMRQwEgYDVQQDDAtFYXN5LVJTQSBDQYIU
UWUyfjhR+ci9VPPYkvMwpT/JlxQwEwYDVR0lBAwwCgYIKwYBBQUHAwIwCwYDVR0P
BAQDAgeAMA0GCSqGSIb3DQEBCwUAA4IBAQCDHl2Mo0QcWiKem4DABzRLGzxLRRqr
lvoyz/JIKCpHsK/yfaTbcBc/8W+X+7A1gHo3kkNs2a66i1OOVFywIINyruFxMjQR
dDlQ1ljrGx3cwrDrh76zeP9Q0e9RpAepuGwdJOnMkkvADU5PatuWsM5XcHWTLAwr
F2+J//lbUtBEHbeYi0zkENDSiL/xAtx/p3/aGOJZ6qDHkSCZIptaUYaHft5jR9Om
FiOtpzdlZgV+Z/9d9goY4YhyHh/icArrCyo27McWfegpR3dbCuCdzA04OY703XYR
7i3F6a8PzzkFfbFKk/n+xYP+lN7++eG8x4b36hgFNUovmWcmx2R1nMwX
-----END CERTIFICATE-----
